target datalayout = "e-m:e-p270:32:32-p271:32:32-p272:64:64-i64:64-i128:128-f80:128-n8:16:32:64-S128"
target triple = "x86_64-pc-linux-gnu"

%union.Value = type { ptr }
%struct.Table = type { ptr, i8, i8, i8, i8, i32, ptr, ptr, ptr, ptr }

; Function Attrs: nounwind uwtable
define internal i64 @concretesize(i32 noundef %0) #0 {
  %2 = alloca i64, align 8
  %3 = alloca i32, align 4
  store i32 %0, ptr %3, align 4, !tbaa !19
  %4 = load i32, ptr %3, align 4, !tbaa !19
  %5 = icmp eq i32 %4, 0
  br i1 %5, label %6, label %7

6:                                                ; preds = %1
  store i64 0, ptr %2, align 8
  br label %12

7:                                                ; preds = %1
  %8 = load i32, ptr %3, align 4, !tbaa !19
  %9 = zext i32 %8 to i64
  %10 = mul i64 %9, 9
  %11 = add i64 %10, 4
  store i64 %11, ptr %2, align 8
  br label %12

12:                                               ; preds = %7, %6
  %13 = load i64, ptr %2, align 8
  ret i64 %13
}

; Function Attrs: nounwind uwtable
define internal i64 @sizehash(ptr noundef %0) #0 {
  %2 = alloca ptr, align 8
  store ptr %0, ptr %2, align 8, !tbaa !9
  %3 = load ptr, ptr %2, align 8, !tbaa !9
  %4 = getelementptr inbounds nuw %struct.Table, ptr %3, i32 0, i32 4
  %5 = load i8, ptr %4, align 1, !tbaa !27
  %6 = zext i8 %5 to i32
  %7 = shl i32 1, %6
  %8 = zext i32 %7 to i64
  %9 = mul i64 %8, 24
  %10 = load ptr, ptr %2, align 8, !tbaa !9
  %11 = getelementptr inbounds nuw %struct.Table, ptr %10, i32 0, i32 4
  %12 = load i8, ptr %11, align 1, !tbaa !27
  %13 = zext i8 %12 to i32
  %14 = icmp sge i32 %13, 3
  %15 = select i1 %14, i64 8, i64 0
  %16 = add i64 %9, %15
  ret i64 %16
}

; Function Attrs: nounwind uwtable
define internal ptr @resizearray(ptr noundef %0, ptr noundef %1, i32 noundef %2, i32 noundef %3) #0 {
  %5 = alloca ptr, align 8
  %6 = alloca ptr, align 8
  %7 = alloca ptr, align 8
  %8 = alloca i32, align 4
  %9 = alloca i32, align 4
  %10 = alloca ptr, align 8
  %11 = alloca i64, align 8
  %12 = alloca ptr, align 8
  %13 = alloca i32, align 4
  %14 = alloca i64, align 8
  %15 = alloca ptr, align 8
  %16 = alloca i32, align 4
  %17 = alloca i64, align 8
  store ptr %0, ptr %6, align 8, !tbaa !4
  store ptr %1, ptr %7, align 8, !tbaa !9
  store i32 %2, ptr %8, align 4, !tbaa !19
  store i32 %3, ptr %9, align 4, !tbaa !19
  %18 = load i32, ptr %8, align 4, !tbaa !19
  %19 = load i32, ptr %9, align 4, !tbaa !19
  %20 = icmp eq i32 %18, %19
  br i1 %20, label %21, label %25

21:                                               ; preds = %4
  %22 = load ptr, ptr %7, align 8, !tbaa !9
  %23 = getelementptr inbounds nuw %struct.Table, ptr %22, i32 0, i32 6
  %24 = load ptr, ptr %23, align 8, !tbaa !20
  store ptr %24, ptr %5, align 8
  br label %102

25:                                               ; preds = %4
  %26 = load i32, ptr %9, align 4, !tbaa !19
  %27 = icmp eq i32 %26, 0
  br i1 %27, label %28, label %40

28:                                               ; preds = %25
  call void @llvm.lifetime.start.p0(i64 8, ptr %10) #8
  %29 = load ptr, ptr %7, align 8, !tbaa !9
  %30 = getelementptr inbounds nuw %struct.Table, ptr %29, i32 0, i32 6
  %31 = load ptr, ptr %30, align 8, !tbaa !20
  %32 = load i32, ptr %8, align 4, !tbaa !19
  %33 = zext i32 %32 to i64
  %34 = sub i64 0, %33
  %35 = getelementptr inbounds %union.Value, ptr %31, i64 %34
  store ptr %35, ptr %10, align 8, !tbaa !31
  %36 = load ptr, ptr %6, align 8, !tbaa !4
  %37 = load ptr, ptr %10, align 8, !tbaa !31
  %38 = load i32, ptr %8, align 4, !tbaa !19
  %39 = call i64 @concretesize(i32 noundef %38)
  call void @luaM_free_(ptr noundef %36, ptr noundef %37, i64 noundef %39)
  store ptr null, ptr %5, align 8
  call void @llvm.lifetime.end.p0(i64 8, ptr %10) #8
  br label %102

40:                                               ; preds = %25
  call void @llvm.lifetime.start.p0(i64 8, ptr %11) #8
  %41 = load i32, ptr %9, align 4, !tbaa !19
  %42 = call i64 @concretesize(i32 noundef %41)
  store i64 %42, ptr %11, align 8, !tbaa !32
  call void @llvm.lifetime.start.p0(i64 8, ptr %12) #8
  %43 = load ptr, ptr %6, align 8, !tbaa !4
  %44 = load i64, ptr %11, align 8, !tbaa !32
  %45 = mul i64 %44, 1
  %46 = call ptr @luaM_realloc_(ptr noundef %43, ptr noundef null, i64 noundef 0, i64 noundef %45)
  store ptr %46, ptr %12, align 8, !tbaa !31
  %47 = load ptr, ptr %12, align 8, !tbaa !31
  %48 = icmp eq ptr %47, null
  br i1 %48, label %49, label %50

49:                                               ; preds = %40
  store ptr null, ptr %5, align 8
  store i32 1, ptr %13, align 4
  br label %101

50:                                               ; preds = %40
  %51 = load i32, ptr %9, align 4, !tbaa !19
  %52 = load ptr, ptr %12, align 8, !tbaa !31
  %53 = zext i32 %51 to i64
  %54 = getelementptr inbounds nuw %union.Value, ptr %52, i64 %53
  store ptr %54, ptr %12, align 8, !tbaa !31
  %55 = load i32, ptr %8, align 4, !tbaa !19
  %56 = icmp ugt i32 %55, 0
  br i1 %56, label %57, label %99

57:                                               ; preds = %50
  call void @llvm.lifetime.start.p0(i64 8, ptr %14) #8
  %58 = load i32, ptr %8, align 4, !tbaa !19
  %59 = call i64 @concretesize(i32 noundef %58)
  store i64 %59, ptr %14, align 8, !tbaa !32
  call void @llvm.lifetime.start.p0(i64 8, ptr %15) #8
  %60 = load ptr, ptr %7, align 8, !tbaa !9
  %61 = getelementptr inbounds nuw %struct.Table, ptr %60, i32 0, i32 6
  %62 = load ptr, ptr %61, align 8, !tbaa !20
  store ptr %62, ptr %15, align 8, !tbaa !31
  call void @llvm.lifetime.start.p0(i64 4, ptr %16) #8
  %63 = load i32, ptr %8, align 4, !tbaa !19
  %64 = load i32, ptr %9, align 4, !tbaa !19
  %65 = icmp ult i32 %63, %64
  br i1 %65, label %66, label %68

66:                                               ; preds = %57
  %67 = load i32, ptr %8, align 4, !tbaa !19
  br label %70

68:                                               ; preds = %57
  %69 = load i32, ptr %9, align 4, !tbaa !19
  br label %70

70:                                               ; preds = %68, %66
  %71 = phi i32 [ %67, %66 ], [ %69, %68 ]
  store i32 %71, ptr %16, align 4, !tbaa !19
  call void @llvm.lifetime.start.p0(i64 8, ptr %17) #8
  %72 = load i32, ptr %8, align 4, !tbaa !19
  %73 = load i32, ptr %9, align 4, !tbaa !19
  %74 = icmp ult i32 %72, %73
  br i1 %74, label %75, label %77

75:                                               ; preds = %70
  %76 = load i64, ptr %14, align 8, !tbaa !32
  br label %79

77:                                               ; preds = %70
  %78 = load i64, ptr %11, align 8, !tbaa !32
  br label %79

79:                                               ; preds = %77, %75
  %80 = phi i64 [ %76, %75 ], [ %78, %77 ]
  store i64 %80, ptr %17, align 8, !tbaa !32
  %81 = load ptr, ptr %12, align 8, !tbaa !31
  %82 = load i32, ptr %16, align 4, !tbaa !19
  %83 = zext i32 %82 to i64
  %84 = sub i64 0, %83
  %85 = getelementptr inbounds %union.Value, ptr %81, i64 %84
  %86 = load ptr, ptr %15, align 8, !tbaa !31
  %87 = load i32, ptr %16, align 4, !tbaa !19
  %88 = zext i32 %87 to i64
  %89 = sub i64 0, %88
  %90 = getelementptr inbounds %union.Value, ptr %86, i64 %89
  %91 = load i64, ptr %17, align 8, !tbaa !32
  call void @llvm.memcpy.p0.p0.i64(ptr align 8 %85, ptr align 8 %90, i64 %91, i1 false)
  %92 = load ptr, ptr %6, align 8, !tbaa !4
  %93 = load ptr, ptr %15, align 8, !tbaa !31
  %94 = load i32, ptr %8, align 4, !tbaa !19
  %95 = zext i32 %94 to i64
  %96 = sub i64 0, %95
  %97 = getelementptr inbounds %union.Value, ptr %93, i64 %96
  %98 = load i64, ptr %14, align 8, !tbaa !32
  call void @luaM_free_(ptr noundef %92, ptr noundef %97, i64 noundef %98)
  call void @llvm.lifetime.end.p0(i64 8, ptr %17) #8
  call void @llvm.lifetime.end.p0(i64 4, ptr %16) #8
  call void @llvm.lifetime.end.p0(i64 8, ptr %15) #8
  call void @llvm.lifetime.end.p0(i64 8, ptr %14) #8
  br label %99

99:                                               ; preds = %79, %50
  %100 = load ptr, ptr %12, align 8, !tbaa !31
  store ptr %100, ptr %5, align 8
  store i32 1, ptr %13, align 4
  br label %101

101:                                              ; preds = %99, %49
  call void @llvm.lifetime.end.p0(i64 8, ptr %12) #8
  call void @llvm.lifetime.end.p0(i64 8, ptr %11) #8
  br label %102

102:                                              ; preds = %101, %28, %21
  %103 = load ptr, ptr %5, align 8
  ret ptr %103
}

; Function Attrs: nounwind uwtable
define internal void @freehash(ptr noundef %0, ptr noundef %1) #0 {
  %3 = alloca ptr, align 8
  %4 = alloca ptr, align 8
  %5 = alloca ptr, align 8
  store ptr %0, ptr %3, align 8, !tbaa !4
  store ptr %1, ptr %4, align 8, !tbaa !9
  %6 = load ptr, ptr %4, align 8, !tbaa !9
  %7 = getelementptr inbounds nuw %struct.Table, ptr %6, i32 0, i32 3
  %8 = load i8, ptr %7, align 2, !tbaa !30
  %9 = zext i8 %8 to i32
  %10 = and i32 %9, 64
  %11 = icmp ne i32 %10, 0
  br i1 %11, label %29, label %12

12:                                               ; preds = %2
  call void @llvm.lifetime.start.p0(i64 8, ptr %5) #8
  %13 = load ptr, ptr %4, align 8, !tbaa !9
  %14 = getelementptr inbounds nuw %struct.Table, ptr %13, i32 0, i32 7
  %15 = load ptr, ptr %14, align 8, !tbaa !28
  %16 = load ptr, ptr %4, align 8, !tbaa !9
  %17 = getelementptr inbounds nuw %struct.Table, ptr %16, i32 0, i32 4
  %18 = load i8, ptr %17, align 1, !tbaa !27
  %19 = zext i8 %18 to i32
  %20 = icmp sge i32 %19, 3
  %21 = select i1 %20, i64 8, i64 0
  %22 = sub i64 0, %21
  %23 = getelementptr inbounds i8, ptr %15, i64 %22
  store ptr %23, ptr %5, align 8, !tbaa !34
  %24 = load ptr, ptr %3, align 8, !tbaa !4
  %25 = load ptr, ptr %5, align 8, !tbaa !34
  %26 = load ptr, ptr %4, align 8, !tbaa !9
  %27 = call i64 @sizehash(ptr noundef %26)
  %28 = mul i64 %27, 1
  call void @luaM_free_(ptr noundef %24, ptr noundef %25, i64 noundef %28)
  call void @llvm.lifetime.end.p0(i64 8, ptr %5) #8
  br label %29

29:                                               ; preds = %12, %2
  ret void
}

; Function Attrs: nounwind uwtable
define hidden void @luaH_free(ptr noundef %0, ptr noundef %1) #0 {
  %3 = alloca ptr, align 8
  %4 = alloca ptr, align 8
  store ptr %0, ptr %3, align 8, !tbaa !4
  store ptr %1, ptr %4, align 8, !tbaa !9
  %5 = load ptr, ptr %3, align 8, !tbaa !4
  %6 = load ptr, ptr %4, align 8, !tbaa !9
  call void @freehash(ptr noundef %5, ptr noundef %6)
  %7 = load ptr, ptr %3, align 8, !tbaa !4
  %8 = load ptr, ptr %4, align 8, !tbaa !9
  %9 = load ptr, ptr %4, align 8, !tbaa !9
  %10 = getelementptr inbounds nuw %struct.Table, ptr %9, i32 0, i32 5
  %11 = load i32, ptr %10, align 4, !tbaa !13
  %12 = call ptr @resizearray(ptr noundef %7, ptr noundef %8, i32 noundef %11, i32 noundef 0)
  %13 = load ptr, ptr %3, align 8, !tbaa !4
  %14 = load ptr, ptr %4, align 8, !tbaa !9
  call void @luaM_free_(ptr noundef %13, ptr noundef %14, i64 noundef 48)
  ret void
}