; Function Attrs: nounwind uwtable
define hidden void @luaH_free(ptr noundef %0, ptr noundef %1) local_unnamed_addr #0 {
  %3 = getelementptr inbounds nuw i8, ptr %1, i64 10
  %4 = load i8, ptr %3, align 2, !tbaa !21
  %5 = and i8 %4, 64
  %.not.i = icmp eq i8 %5, 0
  br i1 %.not.i, label %6, label %freehash.exit

6:                                                ; preds = %2
  %7 = getelementptr inbounds nuw i8, ptr %1, i64 24
  %8 = load ptr, ptr %7, align 8, !tbaa !18
  %9 = getelementptr inbounds nuw i8, ptr %1, i64 11
  %10 = load i8, ptr %9, align 1, !tbaa !20
  %11 = icmp ugt i8 %10, 2
  %.neg.i = select i1 %11, i64 -8, i64 0
  %12 = getelementptr inbounds i8, ptr %8, i64 %.neg.i
  %13 = zext nneg i8 %10 to i64
  %14 = shl nuw i64 24, %13
  %15 = select i1 %11, i64 8, i64 0
  %16 = add nuw nsw i64 %14, %15
  tail call void @luaM_free_(ptr noundef %0, ptr noundef %12, i64 noundef %16) #13
  br label %freehash.exit

freehash.exit:                                    ; preds = %2, %6
  %17 = getelementptr inbounds nuw i8, ptr %1, i64 12
  %18 = load i32, ptr %17, align 4, !tbaa !4
  %19 = icmp eq i32 %18, 0
  br i1 %19, label %resizearray.exit, label %20

20:                                               ; preds = %freehash.exit
  %21 = getelementptr inbounds nuw i8, ptr %1, i64 16
  %22 = load ptr, ptr %21, align 8, !tbaa !19
  %23 = zext i32 %18 to i64
  %24 = sub nsw i64 0, %23
  %25 = getelementptr inbounds %union.Value, ptr %22, i64 %24
  %26 = mul nuw nsw i64 %23, 9
  %27 = add nuw nsw i64 %26, 4
  tail call void @luaM_free_(ptr noundef %0, ptr noundef nonnull %25, i64 noundef %27) #13
  br label %resizearray.exit

resizearray.exit:                                 ; preds = %freehash.exit, %20
  tail call void @luaM_free_(ptr noundef %0, ptr noundef nonnull %1, i64 noundef 48) #13
  ret void
}